target datalayout = "e-m:e-p270:32:32-p271:32:32-p272:64:64-i64:64-i128:128-f80:128-n8:16:32:64-S128"
target triple = "x86_64-pc-linux-gnu"

%struct.fdt_header = type { i32, i32, i32, i32, i32, i32, i32, i32, i32, i32 }

; Function Attrs: inlinehint nounwind uwtable
define internal ptr @fdt_offset_ptr_(ptr noundef %0, i32 noundef %1) #2 {
  %3 = alloca ptr, align 8
  %4 = alloca i32, align 4
  store ptr %0, ptr %3, align 8
  store i32 %1, ptr %4, align 4
  %5 = load ptr, ptr %3, align 8
  %6 = load ptr, ptr %3, align 8
  %7 = getelementptr inbounds nuw %struct.fdt_header, ptr %6, i32 0, i32 2
  %8 = call i32 @fdt32_ld(ptr noundef %7)
  %9 = zext i32 %8 to i64
  %10 = getelementptr inbounds nuw i8, ptr %5, i64 %9
  %11 = load i32, ptr %4, align 4
  %12 = sext i32 %11 to i64
  %13 = getelementptr inbounds i8, ptr %10, i64 %12
  ret ptr %13
}

; Function Attrs: inlinehint nounwind uwtable
define internal zeroext i1 @can_assume_(i32 noundef %0) #2 {
  %2 = alloca i32, align 4
  store i32 %0, ptr %2, align 4
  %3 = load i32, ptr %2, align 4
  %4 = and i32 0, %3
  %5 = icmp ne i32 %4, 0
  ret i1 %5
}

; Function Attrs: inlinehint nounwind uwtable
define internal i32 @fdt32_ld(ptr noundef %0) #2 {
  %2 = alloca ptr, align 8
  %3 = alloca ptr, align 8
  store ptr %0, ptr %2, align 8
  call void @llvm.lifetime.start.p0(i64 8, ptr %3) #5
  %4 = load ptr, ptr %2, align 8
  store ptr %4, ptr %3, align 8
  %5 = load ptr, ptr %3, align 8
  %6 = getelementptr inbounds i8, ptr %5, i64 0
  %7 = load i8, ptr %6, align 1
  %8 = zext i8 %7 to i32
  %9 = shl i32 %8, 24
  %10 = load ptr, ptr %3, align 8
  %11 = getelementptr inbounds i8, ptr %10, i64 1
  %12 = load i8, ptr %11, align 1
  %13 = zext i8 %12 to i32
  %14 = shl i32 %13, 16
  %15 = or i32 %9, %14
  %16 = load ptr, ptr %3, align 8
  %17 = getelementptr inbounds i8, ptr %16, i64 2
  %18 = load i8, ptr %17, align 1
  %19 = zext i8 %18 to i32
  %20 = shl i32 %19, 8
  %21 = or i32 %15, %20
  %22 = load ptr, ptr %3, align 8
  %23 = getelementptr inbounds i8, ptr %22, i64 3
  %24 = load i8, ptr %23, align 1
  %25 = zext i8 %24 to i32
  %26 = or i32 %21, %25
  call void @llvm.lifetime.end.p0(i64 8, ptr %3) #5
  ret i32 %26
}

; Function Attrs: nounwind uwtable
define dso_local ptr @fdt_offset_ptr(ptr noundef %0, i32 noundef %1, i32 noundef %2) #0 {
  %4 = alloca ptr, align 8
  %5 = alloca ptr, align 8
  %6 = alloca i32, align 4
  %7 = alloca i32, align 4
  %8 = alloca i32, align 4
  %9 = alloca i32, align 4
  %10 = alloca i32, align 4
  store ptr %0, ptr %5, align 8
  store i32 %1, ptr %6, align 4
  store i32 %2, ptr %7, align 4
  call void @llvm.lifetime.start.p0(i64 4, ptr %8) #5
  %11 = load i32, ptr %6, align 4
  store i32 %11, ptr %8, align 4
  call void @llvm.lifetime.start.p0(i64 4, ptr %9) #5
  %12 = load i32, ptr %6, align 4
  %13 = load ptr, ptr %5, align 8
  %14 = getelementptr inbounds nuw %struct.fdt_header, ptr %13, i32 0, i32 2
  %15 = call i32 @fdt32_ld(ptr noundef %14)
  %16 = add i32 %12, %15
  store i32 %16, ptr %9, align 4
  %17 = load i32, ptr %6, align 4
  %18 = icmp slt i32 %17, 0
  br i1 %18, label %19, label %20

19:                                               ; preds = %3
  store ptr null, ptr %4, align 8
  store i32 1, ptr %10, align 4
  br label %69

20:                                               ; preds = %3
  %21 = call zeroext i1 @can_assume_(i32 noundef 2)
  br i1 %21, label %42, label %22

22:                                               ; preds = %20
  %23 = load i32, ptr %9, align 4
  %24 = load i32, ptr %8, align 4
  %25 = icmp ult i32 %23, %24
  br i1 %25, label %40, label %26

26:                                               ; preds = %22
  %27 = load i32, ptr %9, align 4
  %28 = load i32, ptr %7, align 4
  %29 = add i32 %27, %28
  %30 = load i32, ptr %9, align 4
  %31 = icmp ult i32 %29, %30
  br i1 %31, label %40, label %32

32:                                               ; preds = %26
  %33 = load i32, ptr %9, align 4
  %34 = load i32, ptr %7, align 4
  %35 = add i32 %33, %34
  %36 = load ptr, ptr %5, align 8
  %37 = getelementptr inbounds nuw %struct.fdt_header, ptr %36, i32 0, i32 1
  %38 = call i32 @fdt32_ld(ptr noundef %37)
  %39 = icmp ugt i32 %35, %38
  br i1 %39, label %40, label %41

40:                                               ; preds = %32, %26, %22
  store ptr null, ptr %4, align 8
  store i32 1, ptr %10, align 4
  br label %69

41:                                               ; preds = %32
  br label %42

42:                                               ; preds = %41, %20
  %43 = call zeroext i1 @can_assume_(i32 noundef 4)
  br i1 %43, label %49, label %44

44:                                               ; preds = %42
  %45 = load ptr, ptr %5, align 8
  %46 = getelementptr inbounds nuw %struct.fdt_header, ptr %45, i32 0, i32 5
  %47 = call i32 @fdt32_ld(ptr noundef %46)
  %48 = icmp uge i32 %47, 17
  br i1 %48, label %49, label %65

49:                                               ; preds = %44, %42
  %50 = load i32, ptr %8, align 4
  %51 = load i32, ptr %7, align 4
  %52 = add i32 %50, %51
  %53 = load i32, ptr %8, align 4
  %54 = icmp ult i32 %52, %53
  br i1 %54, label %63, label %55

55:                                               ; preds = %49
  %56 = load i32, ptr %6, align 4
  %57 = load i32, ptr %7, align 4
  %58 = add i32 %56, %57
  %59 = load ptr, ptr %5, align 8
  %60 = getelementptr inbounds nuw %struct.fdt_header, ptr %59, i32 0, i32 9
  %61 = call i32 @fdt32_ld(ptr noundef %60)
  %62 = icmp ugt i32 %58, %61
  br i1 %62, label %63, label %64

63:                                               ; preds = %55, %49
  store ptr null, ptr %4, align 8
  store i32 1, ptr %10, align 4
  br label %69

64:                                               ; preds = %55
  br label %65

65:                                               ; preds = %64, %44
  %66 = load ptr, ptr %5, align 8
  %67 = load i32, ptr %6, align 4
  %68 = call ptr @fdt_offset_ptr_(ptr noundef %66, i32 noundef %67)
  store ptr %68, ptr %4, align 8
  store i32 1, ptr %10, align 4
  br label %69

69:                                               ; preds = %65, %63, %40, %19
  call void @llvm.lifetime.end.p0(i64 4, ptr %9) #5
  call void @llvm.lifetime.end.p0(i64 4, ptr %8) #5
  %70 = load ptr, ptr %4, align 8
  ret ptr %70
}