; Function Attrs: mustprogress nofree norecurse nosync nounwind willreturn memory(argmem: read) uwtable
define dso_local ptr @fdt_offset_ptr(ptr noundef readonly captures(ret: address, provenance) %0, i32 noundef %1, i32 noundef %2) local_unnamed_addr #0 {
  %4 = getelementptr inbounds nuw i8, ptr %0, i64 8
  %5 = load i8, ptr %4, align 1
  %6 = zext i8 %5 to i32
  %7 = shl nuw i32 %6, 24
  %8 = getelementptr inbounds nuw i8, ptr %0, i64 9
  %9 = load i8, ptr %8, align 1
  %10 = zext i8 %9 to i32
  %11 = shl nuw nsw i32 %10, 16
  %12 = or disjoint i32 %11, %7
  %13 = getelementptr inbounds nuw i8, ptr %0, i64 10
  %14 = load i8, ptr %13, align 1
  %15 = zext i8 %14 to i32
  %16 = shl nuw nsw i32 %15, 8
  %17 = or disjoint i32 %12, %16
  %18 = getelementptr inbounds nuw i8, ptr %0, i64 11
  %19 = load i8, ptr %18, align 1
  %20 = zext i8 %19 to i32
  %21 = or disjoint i32 %17, %20
  %22 = add i32 %21, %1
  %23 = icmp slt i32 %1, 0
  %24 = icmp ult i32 %22, %1
  %or.cond = select i1 %23, i1 true, i1 %24
  br i1 %or.cond, label %105, label %25

25:                                               ; preds = %3
  %26 = add i32 %22, %2
  %27 = icmp ult i32 %26, %22
  br i1 %27, label %105, label %28

28:                                               ; preds = %25
  %29 = getelementptr inbounds nuw i8, ptr %0, i64 4
  %30 = load i8, ptr %29, align 1
  %31 = zext i8 %30 to i32
  %32 = shl nuw i32 %31, 24
  %33 = getelementptr inbounds nuw i8, ptr %0, i64 5
  %34 = load i8, ptr %33, align 1
  %35 = zext i8 %34 to i32
  %36 = shl nuw nsw i32 %35, 16
  %37 = or disjoint i32 %36, %32
  %38 = getelementptr inbounds nuw i8, ptr %0, i64 6
  %39 = load i8, ptr %38, align 1
  %40 = zext i8 %39 to i32
  %41 = shl nuw nsw i32 %40, 8
  %42 = or disjoint i32 %37, %41
  %43 = getelementptr inbounds nuw i8, ptr %0, i64 7
  %44 = load i8, ptr %43, align 1
  %45 = zext i8 %44 to i32
  %46 = or disjoint i32 %42, %45
  %47 = icmp ugt i32 %26, %46
  br i1 %47, label %105, label %48

48:                                               ; preds = %28
  %49 = getelementptr inbounds nuw i8, ptr %0, i64 20
  %50 = load i8, ptr %49, align 1
  %51 = zext i8 %50 to i32
  %52 = shl nuw i32 %51, 24
  %53 = getelementptr inbounds nuw i8, ptr %0, i64 21
  %54 = load i8, ptr %53, align 1
  %55 = zext i8 %54 to i32
  %56 = shl nuw nsw i32 %55, 16
  %57 = or disjoint i32 %56, %52
  %58 = getelementptr inbounds nuw i8, ptr %0, i64 22
  %59 = load i8, ptr %58, align 1
  %60 = zext i8 %59 to i32
  %61 = shl nuw nsw i32 %60, 8
  %62 = or disjoint i32 %57, %61
  %63 = getelementptr inbounds nuw i8, ptr %0, i64 23
  %64 = load i8, ptr %63, align 1
  %65 = zext i8 %64 to i32
  %66 = or disjoint i32 %62, %65
  %67 = icmp ugt i32 %66, 16
  br i1 %67, label %68, label %91

68:                                               ; preds = %48
  %69 = add i32 %2, %1
  %70 = icmp ult i32 %69, %1
  br i1 %70, label %105, label %71

71:                                               ; preds = %68
  %72 = getelementptr inbounds nuw i8, ptr %0, i64 36
  %73 = load i8, ptr %72, align 1
  %74 = zext i8 %73 to i32
  %75 = shl nuw i32 %74, 24
  %76 = getelementptr inbounds nuw i8, ptr %0, i64 37
  %77 = load i8, ptr %76, align 1
  %78 = zext i8 %77 to i32
  %79 = shl nuw nsw i32 %78, 16
  %80 = or disjoint i32 %79, %75
  %81 = getelementptr inbounds nuw i8, ptr %0, i64 38
  %82 = load i8, ptr %81, align 1
  %83 = zext i8 %82 to i32
  %84 = shl nuw nsw i32 %83, 8
  %85 = or disjoint i32 %80, %84
  %86 = getelementptr inbounds nuw i8, ptr %0, i64 39
  %87 = load i8, ptr %86, align 1
  %88 = zext i8 %87 to i32
  %89 = or disjoint i32 %85, %88
  %90 = icmp ugt i32 %69, %89
  br i1 %90, label %105, label %91

91:                                               ; preds = %71, %48
  %92 = zext i8 %5 to i64
  %93 = shl nuw nsw i64 %92, 24
  %94 = zext i8 %9 to i64
  %95 = shl nuw nsw i64 %94, 16
  %96 = or disjoint i64 %95, %93
  %97 = zext i8 %14 to i64
  %98 = shl nuw nsw i64 %97, 8
  %99 = or disjoint i64 %96, %98
  %100 = zext i8 %19 to i64
  %101 = or disjoint i64 %99, %100
  %102 = getelementptr inbounds nuw i8, ptr %0, i64 %101
  %103 = zext nneg i32 %1 to i64
  %104 = getelementptr inbounds nuw i8, ptr %102, i64 %103
  br label %105

105:                                              ; preds = %68, %71, %25, %28, %3, %91
  %.0 = phi ptr [ %104, %91 ], [ null, %3 ], [ null, %28 ], [ null, %25 ], [ null, %71 ], [ null, %68 ]
  ret ptr %.0
}